target datalayout = "e-m:e-p270:32:32-p271:32:32-p272:64:64-i64:64-i128:128-f80:128-n8:16:32:64-S128"
target triple = "x86_64-pc-linux-gnu"

%"class.metaspace::FreeBlocks" = type { %"class.metaspace::BinListImpl", %"class.metaspace::BlockTree", i64 }
%"class.metaspace::BinListImpl" = type { [32 x ptr], %"class.metaspace::AbstractMemoryRangeCounter" }
%"class.metaspace::AbstractMemoryRangeCounter" = type { %"class.metaspace::AbstractCounter", %"class.metaspace::AbstractCounter.0" }
%"class.metaspace::AbstractCounter" = type { i32 }
%"class.metaspace::AbstractCounter.0" = type { i64 }
%"class.metaspace::BlockTree" = type { ptr, %"class.metaspace::AbstractMemoryRangeCounter" }
%"struct.metaspace::BlockTree::Node" = type { i64, ptr, ptr, ptr, ptr, i64 }
%"struct.metaspace::BinListImpl<32>::Block" = type { ptr }

; Function Attrs: mustprogress nounwind uwtable
define linkonce_odr hidden void @_ZN9metaspace15AbstractCounterIjE12increment_byEj(ptr noundef nonnull align 4 dereferenceable(4) %0, i32 noundef %1) #1 comdat align 2 {
  %3 = alloca ptr, align 8
  %4 = alloca i32, align 4
  store ptr %0, ptr %3, align 8
  store i32 %1, ptr %4, align 4
  %5 = load ptr, ptr %3, align 8
  %6 = load i32, ptr %4, align 4
  %7 = getelementptr inbounds %"class.metaspace::AbstractCounter", ptr %5, i32 0, i32 0
  %8 = load i32, ptr %7, align 4
  %9 = add i32 %8, %6
  store i32 %9, ptr %7, align 4
  ret void
}

; Function Attrs: mustprogress nounwind uwtable
define linkonce_odr hidden void @_ZN9metaspace15AbstractCounterImE12increment_byEm(ptr noundef nonnull align 8 dereferenceable(8) %0, i64 noundef %1) #1 comdat align 2 {
  %3 = alloca ptr, align 8
  %4 = alloca i64, align 8
  store ptr %0, ptr %3, align 8
  store i64 %1, ptr %4, align 8
  %5 = load ptr, ptr %3, align 8
  %6 = load i64, ptr %4, align 8
  %7 = getelementptr inbounds %"class.metaspace::AbstractCounter.0", ptr %5, i32 0, i32 0
  %8 = load i64, ptr %7, align 8
  %9 = add i64 %8, %6
  store i64 %9, ptr %7, align 8
  ret void
}

; Function Attrs: mustprogress nounwind uwtable
define linkonce_odr hidden void @_ZN9metaspace15AbstractCounterIjE9incrementEv(ptr noundef nonnull align 4 dereferenceable(4) %0) #1 comdat align 2 {
  %2 = alloca ptr, align 8
  store ptr %0, ptr %2, align 8
  %3 = load ptr, ptr %2, align 8
  call void @_ZN9metaspace15AbstractCounterIjE12increment_byEj(ptr noundef nonnull align 4 dereferenceable(4) %3, i32 noundef 1)
  ret void
}

; Function Attrs: mustprogress nounwind uwtable
define linkonce_odr hidden void @_ZN9metaspace9BlockTree14set_left_childEPNS0_4NodeES2_(ptr noundef %0, ptr noundef %1) #1 comdat align 2 {
  %3 = alloca ptr, align 8
  %4 = alloca ptr, align 8
  store ptr %0, ptr %3, align 8
  store ptr %1, ptr %4, align 8
  %5 = load ptr, ptr %4, align 8
  %6 = load ptr, ptr %3, align 8
  %7 = getelementptr inbounds %"struct.metaspace::BlockTree::Node", ptr %6, i32 0, i32 2
  store ptr %5, ptr %7, align 8
  %8 = load ptr, ptr %4, align 8
  %9 = icmp ne ptr %8, null
  br i1 %9, label %10, label %14

10:                                               ; preds = %2
  %11 = load ptr, ptr %3, align 8
  %12 = load ptr, ptr %4, align 8
  %13 = getelementptr inbounds %"struct.metaspace::BlockTree::Node", ptr %12, i32 0, i32 1
  store ptr %11, ptr %13, align 8
  br label %14

14:                                               ; preds = %10, %2
  ret void
}

; Function Attrs: mustprogress nounwind uwtable
define linkonce_odr hidden void @_ZN9metaspace9BlockTree15set_right_childEPNS0_4NodeES2_(ptr noundef %0, ptr noundef %1) #1 comdat align 2 {
  %3 = alloca ptr, align 8
  %4 = alloca ptr, align 8
  store ptr %0, ptr %3, align 8
  store ptr %1, ptr %4, align 8
  %5 = load ptr, ptr %4, align 8
  %6 = load ptr, ptr %3, align 8
  %7 = getelementptr inbounds %"struct.metaspace::BlockTree::Node", ptr %6, i32 0, i32 3
  store ptr %5, ptr %7, align 8
  %8 = load ptr, ptr %4, align 8
  %9 = icmp ne ptr %8, null
  br i1 %9, label %10, label %14

10:                                               ; preds = %2
  %11 = load ptr, ptr %3, align 8
  %12 = load ptr, ptr %4, align 8
  %13 = getelementptr inbounds %"struct.metaspace::BlockTree::Node", ptr %12, i32 0, i32 1
  store ptr %11, ptr %13, align 8
  br label %14

14:                                               ; preds = %10, %2
  ret void
}

; Function Attrs: mustprogress nounwind uwtable
define linkonce_odr hidden void @_ZN9metaspace9BlockTree11add_to_listEPNS0_4NodeES2_(ptr noundef %0, ptr noundef %1) #1 comdat align 2 {
  %3 = alloca ptr, align 8
  %4 = alloca ptr, align 8
  store ptr %0, ptr %3, align 8
  store ptr %1, ptr %4, align 8
  %5 = load ptr, ptr %4, align 8
  %6 = getelementptr inbounds %"struct.metaspace::BlockTree::Node", ptr %5, i32 0, i32 4
  %7 = load ptr, ptr %6, align 8
  %8 = load ptr, ptr %3, align 8
  %9 = getelementptr inbounds %"struct.metaspace::BlockTree::Node", ptr %8, i32 0, i32 4
  store ptr %7, ptr %9, align 8
  %10 = load ptr, ptr %3, align 8
  %11 = load ptr, ptr %4, align 8
  %12 = getelementptr inbounds %"struct.metaspace::BlockTree::Node", ptr %11, i32 0, i32 4
  store ptr %10, ptr %12, align 8
  ret void
}

; Function Attrs: mustprogress nounwind uwtable
define linkonce_odr hidden void @_ZN9metaspace11BinListImplILi32EE5BlockC2EPS2_(ptr noundef nonnull align 8 dereferenceable(8) %0, ptr noundef %1) unnamed_addr #1 comdat align 2 {
  %3 = alloca ptr, align 8
  %4 = alloca ptr, align 8
  store ptr %0, ptr %3, align 8
  store ptr %1, ptr %4, align 8
  %5 = load ptr, ptr %3, align 8
  %6 = getelementptr inbounds %"struct.metaspace::BinListImpl<32>::Block", ptr %5, i32 0, i32 0
  %7 = load ptr, ptr %4, align 8
  store ptr %7, ptr %6, align 8
  ret void
}

; Function Attrs: mustprogress nounwind uwtable
define linkonce_odr hidden noundef i32 @_ZN9metaspace11BinListImplILi32EE19index_for_word_sizeEm(i64 noundef %0) #1 comdat align 2 {
  %2 = alloca i64, align 8
  %3 = alloca i32, align 4
  store i64 %0, ptr %2, align 8
  %4 = load i64, ptr %2, align 8
  %5 = sub i64 %4, 1
  %6 = trunc i64 %5 to i32
  store i32 %6, ptr %3, align 4
  %7 = load i32, ptr %3, align 4
  ret i32 %7
}

; Function Attrs: mustprogress nounwind uwtable
define linkonce_odr hidden void @_ZN9metaspace26AbstractMemoryRangeCounterIjmE3addEm(ptr noundef nonnull align 8 dereferenceable(16) %0, i64 noundef %1) #1 comdat align 2 {
  %3 = alloca ptr, align 8
  %4 = alloca i64, align 8
  store ptr %0, ptr %3, align 8
  store i64 %1, ptr %4, align 8
  %5 = load ptr, ptr %3, align 8
  %6 = load i64, ptr %4, align 8
  %7 = icmp ugt i64 %6, 0
  br i1 %7, label %8, label %12

8:                                                ; preds = %2
  %9 = getelementptr inbounds %"class.metaspace::AbstractMemoryRangeCounter", ptr %5, i32 0, i32 0
  call void @_ZN9metaspace15AbstractCounterIjE9incrementEv(ptr noundef nonnull align 4 dereferenceable(4) %9)
  %10 = getelementptr inbounds %"class.metaspace::AbstractMemoryRangeCounter", ptr %5, i32 0, i32 1
  %11 = load i64, ptr %4, align 8
  call void @_ZN9metaspace15AbstractCounterImE12increment_byEm(ptr noundef nonnull align 8 dereferenceable(8) %10, i64 noundef %11)
  br label %12

12:                                               ; preds = %8, %2
  ret void
}

; Function Attrs: mustprogress nounwind uwtable
define linkonce_odr hidden void @_ZN9metaspace9BlockTree6insertEPNS0_4NodeES2_(ptr noundef nonnull align 8 dereferenceable(24) %0, ptr noundef %1, ptr noundef %2) #1 comdat align 2 {
  %4 = alloca ptr, align 8
  %5 = alloca ptr, align 8
  %6 = alloca ptr, align 8
  store ptr %0, ptr %4, align 8
  store ptr %1, ptr %5, align 8
  store ptr %2, ptr %6, align 8
  br label %7

7:                                                ; preds = %53, %3
  %8 = load ptr, ptr %6, align 8
  %9 = getelementptr inbounds %"struct.metaspace::BlockTree::Node", ptr %8, i32 0, i32 5
  %10 = load i64, ptr %9, align 8
  %11 = load ptr, ptr %5, align 8
  %12 = getelementptr inbounds %"struct.metaspace::BlockTree::Node", ptr %11, i32 0, i32 5
  %13 = load i64, ptr %12, align 8
  %14 = icmp eq i64 %10, %13
  br i1 %14, label %15, label %18

15:                                               ; preds = %7
  %16 = load ptr, ptr %6, align 8
  %17 = load ptr, ptr %5, align 8
  call void @_ZN9metaspace9BlockTree11add_to_listEPNS0_4NodeES2_(ptr noundef %16, ptr noundef %17)
  br label %54

18:                                               ; preds = %7
  %19 = load ptr, ptr %6, align 8
  %20 = getelementptr inbounds %"struct.metaspace::BlockTree::Node", ptr %19, i32 0, i32 5
  %21 = load i64, ptr %20, align 8
  %22 = load ptr, ptr %5, align 8
  %23 = getelementptr inbounds %"struct.metaspace::BlockTree::Node", ptr %22, i32 0, i32 5
  %24 = load i64, ptr %23, align 8
  %25 = icmp ugt i64 %21, %24
  br i1 %25, label %26, label %39

26:                                               ; preds = %18
  %27 = load ptr, ptr %5, align 8
  %28 = getelementptr inbounds %"struct.metaspace::BlockTree::Node", ptr %27, i32 0, i32 3
  %29 = load ptr, ptr %28, align 8
  %30 = icmp eq ptr %29, null
  br i1 %30, label %31, label %34

31:                                               ; preds = %26
  %32 = load ptr, ptr %5, align 8
  %33 = load ptr, ptr %6, align 8
  call void @_ZN9metaspace9BlockTree15set_right_childEPNS0_4NodeES2_(ptr noundef %32, ptr noundef %33)
  br label %54

34:                                               ; preds = %26
  %35 = load ptr, ptr %5, align 8
  %36 = getelementptr inbounds %"struct.metaspace::BlockTree::Node", ptr %35, i32 0, i32 3
  %37 = load ptr, ptr %36, align 8
  store ptr %37, ptr %5, align 8
  br label %38

38:                                               ; preds = %34
  br label %52

39:                                               ; preds = %18
  %40 = load ptr, ptr %5, align 8
  %41 = getelementptr inbounds %"struct.metaspace::BlockTree::Node", ptr %40, i32 0, i32 2
  %42 = load ptr, ptr %41, align 8
  %43 = icmp eq ptr %42, null
  br i1 %43, label %44, label %47

44:                                               ; preds = %39
  %45 = load ptr, ptr %5, align 8
  %46 = load ptr, ptr %6, align 8
  call void @_ZN9metaspace9BlockTree14set_left_childEPNS0_4NodeES2_(ptr noundef %45, ptr noundef %46)
  br label %54

47:                                               ; preds = %39
  %48 = load ptr, ptr %5, align 8
  %49 = getelementptr inbounds %"struct.metaspace::BlockTree::Node", ptr %48, i32 0, i32 2
  %50 = load ptr, ptr %49, align 8
  store ptr %50, ptr %5, align 8
  br label %51

51:                                               ; preds = %47
  br label %52

52:                                               ; preds = %51, %38
  br label %53

53:                                               ; preds = %52
  br label %7, !llvm.loop !6

54:                                               ; preds = %44, %31, %15
  ret void
}

; Function Attrs: mustprogress nounwind uwtable
define linkonce_odr hidden void @_ZN9metaspace9BlockTree4NodeC2Em(ptr noundef nonnull align 8 dereferenceable(48) %0, i64 noundef %1) unnamed_addr #1 comdat align 2 {
  %3 = alloca ptr, align 8
  %4 = alloca i64, align 8
  store ptr %0, ptr %3, align 8
  store i64 %1, ptr %4, align 8
  %5 = load ptr, ptr %3, align 8
  %6 = getelementptr inbounds %"struct.metaspace::BlockTree::Node", ptr %5, i32 0, i32 0
  store i64 5642803922575770693, ptr %6, align 8
  %7 = getelementptr inbounds %"struct.metaspace::BlockTree::Node", ptr %5, i32 0, i32 1
  store ptr null, ptr %7, align 8
  %8 = getelementptr inbounds %"struct.metaspace::BlockTree::Node", ptr %5, i32 0, i32 2
  store ptr null, ptr %8, align 8
  %9 = getelementptr inbounds %"struct.metaspace::BlockTree::Node", ptr %5, i32 0, i32 3
  store ptr null, ptr %9, align 8
  %10 = getelementptr inbounds %"struct.metaspace::BlockTree::Node", ptr %5, i32 0, i32 4
  store ptr null, ptr %10, align 8
  %11 = getelementptr inbounds %"struct.metaspace::BlockTree::Node", ptr %5, i32 0, i32 5
  %12 = load i64, ptr %4, align 8
  store i64 %12, ptr %11, align 8
  ret void
}

; Function Attrs: mustprogress nounwind uwtable
define linkonce_odr hidden void @_ZN9metaspace11BinListImplILi32EE9add_blockEPP12MetaWordImplm(ptr noundef nonnull align 8 dereferenceable(272) %0, ptr noundef %1, i64 noundef %2) #1 comdat align 2 {
  %4 = alloca ptr, align 8
  %5 = alloca ptr, align 8
  %6 = alloca i64, align 8
  %7 = alloca i32, align 4
  %8 = alloca ptr, align 8
  %9 = alloca ptr, align 8
  store ptr %0, ptr %4, align 8
  store ptr %1, ptr %5, align 8
  store i64 %2, ptr %6, align 8
  %10 = load ptr, ptr %4, align 8
  %11 = load i64, ptr %6, align 8
  %12 = call noundef i32 @_ZN9metaspace11BinListImplILi32EE19index_for_word_sizeEm(i64 noundef %11)
  store i32 %12, ptr %7, align 4
  %13 = getelementptr inbounds %"class.metaspace::BinListImpl", ptr %10, i32 0, i32 0
  %14 = load i32, ptr %7, align 4
  %15 = sext i32 %14 to i64
  %16 = getelementptr inbounds [32 x ptr], ptr %13, i64 0, i64 %15
  %17 = load ptr, ptr %16, align 8
  store ptr %17, ptr %8, align 8
  %18 = load ptr, ptr %5, align 8
  %19 = load ptr, ptr %8, align 8
  call void @_ZN9metaspace11BinListImplILi32EE5BlockC2EPS2_(ptr noundef nonnull align 8 dereferenceable(8) %18, ptr noundef %19)
  store ptr %18, ptr %9, align 8
  %20 = load ptr, ptr %9, align 8
  %21 = getelementptr inbounds %"class.metaspace::BinListImpl", ptr %10, i32 0, i32 0
  %22 = load i32, ptr %7, align 4
  %23 = sext i32 %22 to i64
  %24 = getelementptr inbounds [32 x ptr], ptr %21, i64 0, i64 %23
  store ptr %20, ptr %24, align 8
  %25 = getelementptr inbounds %"class.metaspace::BinListImpl", ptr %10, i32 0, i32 1
  %26 = load i64, ptr %6, align 8
  call void @_ZN9metaspace26AbstractMemoryRangeCounterIjmE3addEm(ptr noundef nonnull align 8 dereferenceable(16) %25, i64 noundef %26)
  ret void
}

; Function Attrs: mustprogress nounwind uwtable
define linkonce_odr hidden void @_ZN9metaspace9BlockTree9add_blockEPP12MetaWordImplm(ptr noundef nonnull align 8 dereferenceable(24) %0, ptr noundef %1, i64 noundef %2) #1 comdat align 2 {
  %4 = alloca ptr, align 8
  %5 = alloca ptr, align 8
  %6 = alloca i64, align 8
  %7 = alloca ptr, align 8
  store ptr %0, ptr %4, align 8
  store ptr %1, ptr %5, align 8
  store i64 %2, ptr %6, align 8
  %8 = load ptr, ptr %4, align 8
  %9 = load ptr, ptr %5, align 8
  %10 = load i64, ptr %6, align 8
  call void @_ZN9metaspace9BlockTree4NodeC2Em(ptr noundef nonnull align 8 dereferenceable(48) %9, i64 noundef %10)
  store ptr %9, ptr %7, align 8
  %11 = getelementptr inbounds %"class.metaspace::BlockTree", ptr %8, i32 0, i32 0
  %12 = load ptr, ptr %11, align 8
  %13 = icmp eq ptr %12, null
  br i1 %13, label %14, label %17

14:                                               ; preds = %3
  %15 = load ptr, ptr %7, align 8
  %16 = getelementptr inbounds %"class.metaspace::BlockTree", ptr %8, i32 0, i32 0
  store ptr %15, ptr %16, align 8
  br label %21

17:                                               ; preds = %3
  %18 = getelementptr inbounds %"class.metaspace::BlockTree", ptr %8, i32 0, i32 0
  %19 = load ptr, ptr %18, align 8
  %20 = load ptr, ptr %7, align 8
  call void @_ZN9metaspace9BlockTree6insertEPNS0_4NodeES2_(ptr noundef nonnull align 8 dereferenceable(24) %8, ptr noundef %19, ptr noundef %20)
  br label %21

21:                                               ; preds = %17, %14
  %22 = getelementptr inbounds %"class.metaspace::BlockTree", ptr %8, i32 0, i32 1
  %23 = load i64, ptr %6, align 8
  call void @_ZN9metaspace26AbstractMemoryRangeCounterIjmE3addEm(ptr noundef nonnull align 8 dereferenceable(16) %22, i64 noundef %23)
  ret void
}

; Function Attrs: mustprogress nounwind uwtable
define hidden void @_ZN9metaspace10FreeBlocks9add_blockEPP12MetaWordImplm(ptr noundef nonnull align 8 dereferenceable(304) %0, ptr noundef %1, i64 noundef %2) #1 align 2 {
  %4 = alloca ptr, align 8
  %5 = alloca ptr, align 8
  %6 = alloca i64, align 8
  store ptr %0, ptr %4, align 8
  store ptr %1, ptr %5, align 8
  store i64 %2, ptr %6, align 8
  %7 = load ptr, ptr %4, align 8
  %8 = load i64, ptr %6, align 8
  %9 = getelementptr inbounds %"class.metaspace::FreeBlocks", ptr %7, i32 0, i32 2
  %10 = load i64, ptr %9, align 8
  %11 = icmp ugt i64 %8, %10
  br i1 %11, label %12, label %16

12:                                               ; preds = %3
  %13 = getelementptr inbounds %"class.metaspace::FreeBlocks", ptr %7, i32 0, i32 1
  %14 = load ptr, ptr %5, align 8
  %15 = load i64, ptr %6, align 8
  call void @_ZN9metaspace9BlockTree9add_blockEPP12MetaWordImplm(ptr noundef nonnull align 8 dereferenceable(24) %13, ptr noundef %14, i64 noundef %15)
  br label %20

16:                                               ; preds = %3
  %17 = getelementptr inbounds %"class.metaspace::FreeBlocks", ptr %7, i32 0, i32 0
  %18 = load ptr, ptr %5, align 8
  %19 = load i64, ptr %6, align 8
  call void @_ZN9metaspace11BinListImplILi32EE9add_blockEPP12MetaWordImplm(ptr noundef nonnull align 8 dereferenceable(272) %17, ptr noundef %18, i64 noundef %19)
  br label %20

20:                                               ; preds = %16, %12
  ret void
}