; Function Attrs: mustprogress nofree norecurse nosync nounwind memory(readwrite, inaccessiblemem: none) uwtable
define hidden void @_ZN9metaspace10FreeBlocks9add_blockEPP12MetaWordImplm(ptr nocapture noundef nonnull align 8 dereferenceable(304) %0, ptr noundef %1, i64 noundef %2) local_unnamed_addr #0 align 2 {
  %4 = getelementptr inbounds i8, ptr %0, i64 296
  %5 = load i64, ptr %4, align 8
  %6 = icmp ult i64 %5, %2
  br i1 %6, label %7, label %38

7:                                                ; preds = %3
  %8 = getelementptr inbounds i8, ptr %0, i64 272
  store i64 5642803922575770693, ptr %1, align 8
  %9 = getelementptr inbounds i8, ptr %1, i64 8
  %10 = getelementptr inbounds i8, ptr %1, i64 40
  tail call void @llvm.memset.p0.i64(ptr noundef nonnull align 8 dereferenceable(32) %9, i8 0, i64 32, i1 false)
  store i64 %2, ptr %10, align 8
  %11 = load ptr, ptr %8, align 8
  %12 = icmp eq ptr %11, null
  br i1 %12, label %13, label %14

13:                                               ; preds = %7
  store ptr %1, ptr %8, align 8
  br label %_ZN9metaspace11BinListImplILi32EE9add_blockEPP12MetaWordImplm.exit.sink.split

14:                                               ; preds = %7
  %15 = getelementptr inbounds i8, ptr %11, i64 40
  %16 = load i64, ptr %15, align 8
  %17 = icmp eq i64 %16, %2
  br i1 %17, label %._crit_edge.i.i, label %.lr.ph.i.i

._crit_edge.i.i:                                  ; preds = %34, %14
  %.0.lcssa.i.i = phi ptr [ %11, %14 ], [ %.1.i.i, %34 ]
  %18 = getelementptr inbounds i8, ptr %.0.lcssa.i.i, i64 32
  %19 = load ptr, ptr %18, align 8
  %20 = getelementptr inbounds i8, ptr %1, i64 32
  store ptr %19, ptr %20, align 8
  store ptr %1, ptr %18, align 8
  br label %_ZN9metaspace11BinListImplILi32EE9add_blockEPP12MetaWordImplm.exit.sink.split

.lr.ph.i.i:                                       ; preds = %14, %34
  %21 = phi i64 [ %36, %34 ], [ %16, %14 ]
  %.024.i.i = phi ptr [ %.1.i.i, %34 ], [ %11, %14 ]
  %22 = icmp ult i64 %21, %2
  br i1 %22, label %23, label %28

23:                                               ; preds = %.lr.ph.i.i
  %24 = getelementptr inbounds i8, ptr %.024.i.i, i64 24
  %25 = load ptr, ptr %24, align 8
  %26 = icmp eq ptr %25, null
  br i1 %26, label %_ZN9metaspace9BlockTree6insertEPNS0_4NodeES2_.exit.thread.i, label %34

_ZN9metaspace9BlockTree6insertEPNS0_4NodeES2_.exit.thread.i: ; preds = %23
  %27 = getelementptr inbounds i8, ptr %.024.i.i, i64 24
  store ptr %1, ptr %27, align 8
  store ptr %.024.i.i, ptr %9, align 8
  br label %_ZN9metaspace11BinListImplILi32EE9add_blockEPP12MetaWordImplm.exit.sink.split

28:                                               ; preds = %.lr.ph.i.i
  %29 = getelementptr inbounds i8, ptr %.024.i.i, i64 16
  %30 = load ptr, ptr %29, align 8
  %31 = icmp eq ptr %30, null
  br i1 %31, label %32, label %34

32:                                               ; preds = %28
  %33 = getelementptr inbounds i8, ptr %.024.i.i, i64 16
  store ptr %1, ptr %33, align 8
  store ptr %.024.i.i, ptr %9, align 8
  br label %_ZN9metaspace11BinListImplILi32EE9add_blockEPP12MetaWordImplm.exit.sink.split

34:                                               ; preds = %28, %23
  %.1.i.i = phi ptr [ %25, %23 ], [ %30, %28 ]
  %35 = getelementptr inbounds i8, ptr %.1.i.i, i64 40
  %36 = load i64, ptr %35, align 8
  %37 = icmp eq i64 %36, %2
  br i1 %37, label %._crit_edge.i.i, label %.lr.ph.i.i, !llvm.loop !6

38:                                               ; preds = %3
  %39 = shl i64 %2, 32
  %sext.i = add i64 %39, -4294967296
  %40 = ashr exact i64 %sext.i, 32
  %41 = getelementptr inbounds [32 x ptr], ptr %0, i64 0, i64 %40
  %42 = load ptr, ptr %41, align 8
  store ptr %42, ptr %1, align 8
  store ptr %1, ptr %41, align 8
  %.not.i.i5 = icmp eq i64 %2, 0
  br i1 %.not.i.i5, label %_ZN9metaspace11BinListImplILi32EE9add_blockEPP12MetaWordImplm.exit, label %_ZN9metaspace11BinListImplILi32EE9add_blockEPP12MetaWordImplm.exit.sink.split

_ZN9metaspace11BinListImplILi32EE9add_blockEPP12MetaWordImplm.exit.sink.split: ; preds = %38, %13, %._crit_edge.i.i, %32, %_ZN9metaspace9BlockTree6insertEPNS0_4NodeES2_.exit.thread.i
  %.sink23 = phi i64 [ 280, %_ZN9metaspace9BlockTree6insertEPNS0_4NodeES2_.exit.thread.i ], [ 280, %32 ], [ 280, %._crit_edge.i.i ], [ 280, %13 ], [ 256, %38 ]
  %.sink20 = phi i64 [ 288, %_ZN9metaspace9BlockTree6insertEPNS0_4NodeES2_.exit.thread.i ], [ 288, %32 ], [ 288, %._crit_edge.i.i ], [ 288, %13 ], [ 264, %38 ]
  %43 = getelementptr inbounds i8, ptr %0, i64 %.sink23
  %44 = load i32, ptr %43, align 8
  %45 = add i32 %44, 1
  store i32 %45, ptr %43, align 8
  %46 = getelementptr inbounds i8, ptr %0, i64 %.sink20
  %47 = load i64, ptr %46, align 8
  %48 = add i64 %47, %2
  store i64 %48, ptr %46, align 8
  br label %_ZN9metaspace11BinListImplILi32EE9add_blockEPP12MetaWordImplm.exit

_ZN9metaspace11BinListImplILi32EE9add_blockEPP12MetaWordImplm.exit: ; preds = %_ZN9metaspace11BinListImplILi32EE9add_blockEPP12MetaWordImplm.exit.sink.split, %38
  ret void
}